target datalayout = "e-m:e-p270:32:32-p271:32:32-p272:64:64-i64:64-i128:128-f80:128-n8:16:32:64-S128"
target triple = "x86_64-pc-linux-gnu"

%struct.X509_algor_st = type { ptr, ptr }
%struct.asn1_type_st = type { i32, %union.anon }
%union.anon = type { ptr }
%struct.PBKDF2PARAM_st = type { ptr, ptr, ptr, ptr }
%struct.asn1_string_st = type { i32, i32, ptr, i64 }

@PBKDF2PARAM_it = hidden constant { i8, [7 x i8], i64, ptr, i64, ptr, i64, ptr } { i8 1, [7 x i8] zeroinitializer, i64 16, ptr @PBKDF2PARAM_seq_tt, i64 4, ptr null, i64 32, ptr @.str.1 }, align 8
@.str.2 = private unnamed_addr constant [127 x i8] c"generated/home/dtcxzyw/WorkSpace/Projects/compilers/llvm-opt-benchmark/bench/libquic/libquic/boringssl/crypto/pkcs8/p5_pbev2.c\00", align 1

; Function Attrs: nounwind uwtable
define hidden void @PBKDF2PARAM_free(ptr noundef %0) #0 {
  %2 = alloca ptr, align 8
  store ptr %0, ptr %2, align 8, !tbaa !19
  %3 = load ptr, ptr %2, align 8, !tbaa !19
  call void @ASN1_item_free(ptr noundef %3, ptr noundef @PBKDF2PARAM_it)
  ret void
}

; Function Attrs: nounwind uwtable
define hidden ptr @PBKDF2PARAM_new() #0 {
  %1 = call ptr @ASN1_item_new(ptr noundef @PBKDF2PARAM_it)
  ret ptr %1
}

; Function Attrs: nounwind uwtable
define hidden ptr @PKCS5_pbkdf2_set(i32 noundef %0, ptr noundef %1, i32 noundef %2, i32 noundef %3, i32 noundef %4) #0 {
  %6 = alloca ptr, align 8
  %7 = alloca i32, align 4
  %8 = alloca ptr, align 8
  %9 = alloca i32, align 4
  %10 = alloca i32, align 4
  %11 = alloca i32, align 4
  %12 = alloca ptr, align 8
  %13 = alloca ptr, align 8
  %14 = alloca ptr, align 8
  %15 = alloca i32, align 4
  store i32 %0, ptr %7, align 4, !tbaa !23
  store ptr %1, ptr %8, align 8, !tbaa !25
  store i32 %2, ptr %9, align 4, !tbaa !23
  store i32 %3, ptr %10, align 4, !tbaa !23
  store i32 %4, ptr %11, align 4, !tbaa !23
  call void @llvm.lifetime.start.p0(i64 8, ptr %12) #5
  store ptr null, ptr %12, align 8, !tbaa !27
  call void @llvm.lifetime.start.p0(i64 8, ptr %13) #5
  store ptr null, ptr %13, align 8, !tbaa !19
  call void @llvm.lifetime.start.p0(i64 8, ptr %14) #5
  store ptr null, ptr %14, align 8, !tbaa !43
  %16 = call ptr @PBKDF2PARAM_new()
  store ptr %16, ptr %13, align 8, !tbaa !19
  %17 = icmp ne ptr %16, null
  br i1 %17, label %19, label %18

18:                                               ; preds = %5
  br label %151

19:                                               ; preds = %5
  %20 = call ptr @ASN1_STRING_type_new(i32 noundef 4)
  store ptr %20, ptr %14, align 8, !tbaa !43
  %21 = icmp ne ptr %20, null
  br i1 %21, label %23, label %22

22:                                               ; preds = %19
  br label %151

23:                                               ; preds = %19
  %24 = load ptr, ptr %14, align 8, !tbaa !43
  %25 = load ptr, ptr %13, align 8, !tbaa !19
  %26 = getelementptr inbounds nuw %struct.PBKDF2PARAM_st, ptr %25, i32 0, i32 0
  %27 = load ptr, ptr %26, align 8, !tbaa !45
  %28 = getelementptr inbounds nuw %struct.asn1_type_st, ptr %27, i32 0, i32 1
  store ptr %24, ptr %28, align 8, !tbaa !47
  %29 = load ptr, ptr %13, align 8, !tbaa !19
  %30 = getelementptr inbounds nuw %struct.PBKDF2PARAM_st, ptr %29, i32 0, i32 0
  %31 = load ptr, ptr %30, align 8, !tbaa !45
  %32 = getelementptr inbounds nuw %struct.asn1_type_st, ptr %31, i32 0, i32 0
  store i32 4, ptr %32, align 8, !tbaa !38
  %33 = load i32, ptr %9, align 4, !tbaa !23
  %34 = icmp ne i32 %33, 0
  br i1 %34, label %36, label %35

35:                                               ; preds = %23
  store i32 8, ptr %9, align 4, !tbaa !23
  br label %36

36:                                               ; preds = %35, %23
  %37 = load i32, ptr %9, align 4, !tbaa !23
  %38 = sext i32 %37 to i64
  %39 = call noalias ptr @malloc(i64 noundef %38) #6
  %40 = load ptr, ptr %14, align 8, !tbaa !43
  %41 = getelementptr inbounds nuw %struct.asn1_string_st, ptr %40, i32 0, i32 2
  store ptr %39, ptr %41, align 8, !tbaa !48
  %42 = icmp ne ptr %39, null
  br i1 %42, label %44, label %43

43:                                               ; preds = %36
  br label %151

44:                                               ; preds = %36
  %45 = load i32, ptr %9, align 4, !tbaa !23
  %46 = load ptr, ptr %14, align 8, !tbaa !43
  %47 = getelementptr inbounds nuw %struct.asn1_string_st, ptr %46, i32 0, i32 0
  store i32 %45, ptr %47, align 8, !tbaa !50
  %48 = load ptr, ptr %8, align 8, !tbaa !25
  %49 = icmp ne ptr %48, null
  br i1 %49, label %50, label %57

50:                                               ; preds = %44
  %51 = load ptr, ptr %14, align 8, !tbaa !43
  %52 = getelementptr inbounds nuw %struct.asn1_string_st, ptr %51, i32 0, i32 2
  %53 = load ptr, ptr %52, align 8, !tbaa !48
  %54 = load ptr, ptr %8, align 8, !tbaa !25
  %55 = load i32, ptr %9, align 4, !tbaa !23
  %56 = sext i32 %55 to i64
  call void @llvm.memcpy.p0.p0.i64(ptr align 1 %53, ptr align 1 %54, i64 %56, i1 false)
  br label %67

57:                                               ; preds = %44
  %58 = load ptr, ptr %14, align 8, !tbaa !43
  %59 = getelementptr inbounds nuw %struct.asn1_string_st, ptr %58, i32 0, i32 2
  %60 = load ptr, ptr %59, align 8, !tbaa !48
  %61 = load i32, ptr %9, align 4, !tbaa !23
  %62 = sext i32 %61 to i64
  %63 = call i32 @RAND_bytes(ptr noundef %60, i64 noundef %62)
  %64 = icmp ne i32 %63, 0
  br i1 %64, label %66, label %65

65:                                               ; preds = %57
  br label %151

66:                                               ; preds = %57
  br label %67

67:                                               ; preds = %66, %50
  %68 = load i32, ptr %7, align 4, !tbaa !23
  %69 = icmp sle i32 %68, 0
  br i1 %69, label %70, label %71

70:                                               ; preds = %67
  store i32 2048, ptr %7, align 4, !tbaa !23
  br label %71

71:                                               ; preds = %70, %67
  %72 = load ptr, ptr %13, align 8, !tbaa !19
  %73 = getelementptr inbounds nuw %struct.PBKDF2PARAM_st, ptr %72, i32 0, i32 1
  %74 = load ptr, ptr %73, align 8, !tbaa !51
  %75 = load i32, ptr %7, align 4, !tbaa !23
  %76 = sext i32 %75 to i64
  %77 = call i32 @ASN1_INTEGER_set(ptr noundef %74, i64 noundef %76)
  %78 = icmp ne i32 %77, 0
  br i1 %78, label %80, label %79

79:                                               ; preds = %71
  br label %151

80:                                               ; preds = %71
  %81 = load i32, ptr %11, align 4, !tbaa !23
  %82 = icmp sgt i32 %81, 0
  br i1 %82, label %83, label %99

83:                                               ; preds = %80
  %84 = call ptr @ASN1_STRING_type_new(i32 noundef 2)
  %85 = load ptr, ptr %13, align 8, !tbaa !19
  %86 = getelementptr inbounds nuw %struct.PBKDF2PARAM_st, ptr %85, i32 0, i32 2
  store ptr %84, ptr %86, align 8, !tbaa !52
  %87 = icmp ne ptr %84, null
  br i1 %87, label %89, label %88

88:                                               ; preds = %83
  br label %151

89:                                               ; preds = %83
  %90 = load ptr, ptr %13, align 8, !tbaa !19
  %91 = getelementptr inbounds nuw %struct.PBKDF2PARAM_st, ptr %90, i32 0, i32 2
  %92 = load ptr, ptr %91, align 8, !tbaa !52
  %93 = load i32, ptr %11, align 4, !tbaa !23
  %94 = sext i32 %93 to i64
  %95 = call i32 @ASN1_INTEGER_set(ptr noundef %92, i64 noundef %94)
  %96 = icmp ne i32 %95, 0
  br i1 %96, label %98, label %97

97:                                               ; preds = %89
  br label %151

98:                                               ; preds = %89
  br label %99

99:                                               ; preds = %98, %80
  %100 = load i32, ptr %10, align 4, !tbaa !23
  %101 = icmp sgt i32 %100, 0
  br i1 %101, label %102, label %121

102:                                              ; preds = %99
  %103 = load i32, ptr %10, align 4, !tbaa !23
  %104 = icmp ne i32 %103, 163
  br i1 %104, label %105, label %121

105:                                              ; preds = %102
  %106 = call ptr @X509_ALGOR_new()
  %107 = load ptr, ptr %13, align 8, !tbaa !19
  %108 = getelementptr inbounds nuw %struct.PBKDF2PARAM_st, ptr %107, i32 0, i32 3
  store ptr %106, ptr %108, align 8, !tbaa !53
  %109 = load ptr, ptr %13, align 8, !tbaa !19
  %110 = getelementptr inbounds nuw %struct.PBKDF2PARAM_st, ptr %109, i32 0, i32 3
  %111 = load ptr, ptr %110, align 8, !tbaa !53
  %112 = icmp ne ptr %111, null
  br i1 %112, label %114, label %113

113:                                              ; preds = %105
  br label %151

114:                                              ; preds = %105
  %115 = load ptr, ptr %13, align 8, !tbaa !19
  %116 = getelementptr inbounds nuw %struct.PBKDF2PARAM_st, ptr %115, i32 0, i32 3
  %117 = load ptr, ptr %116, align 8, !tbaa !53
  %118 = load i32, ptr %10, align 4, !tbaa !23
  %119 = call ptr @OBJ_nid2obj(i32 noundef %118)
  %120 = call i32 @X509_ALGOR_set0(ptr noundef %117, ptr noundef %119, i32 noundef 5, ptr noundef null)
  br label %121

121:                                              ; preds = %114, %102, %99
  %122 = call ptr @X509_ALGOR_new()
  store ptr %122, ptr %12, align 8, !tbaa !27
  %123 = load ptr, ptr %12, align 8, !tbaa !27
  %124 = icmp ne ptr %123, null
  br i1 %124, label %126, label %125

125:                                              ; preds = %121
  br label %151

126:                                              ; preds = %121
  %127 = call ptr @OBJ_nid2obj(i32 noundef 69)
  %128 = load ptr, ptr %12, align 8, !tbaa !27
  %129 = getelementptr inbounds nuw %struct.X509_algor_st, ptr %128, i32 0, i32 0
  store ptr %127, ptr %129, align 8, !tbaa !33
  %130 = call ptr @ASN1_TYPE_new()
  %131 = load ptr, ptr %12, align 8, !tbaa !27
  %132 = getelementptr inbounds nuw %struct.X509_algor_st, ptr %131, i32 0, i32 1
  store ptr %130, ptr %132, align 8, !tbaa !36
  %133 = icmp ne ptr %130, null
  br i1 %133, label %135, label %134

134:                                              ; preds = %126
  br label %151

135:                                              ; preds = %126
  %136 = load ptr, ptr %13, align 8, !tbaa !19
  %137 = load ptr, ptr %12, align 8, !tbaa !27
  %138 = getelementptr inbounds nuw %struct.X509_algor_st, ptr %137, i32 0, i32 1
  %139 = load ptr, ptr %138, align 8, !tbaa !36
  %140 = getelementptr inbounds nuw %struct.asn1_type_st, ptr %139, i32 0, i32 1
  %141 = call ptr @ASN1_item_pack(ptr noundef %136, ptr noundef @PBKDF2PARAM_it, ptr noundef %140)
  %142 = icmp ne ptr %141, null
  br i1 %142, label %144, label %143

143:                                              ; preds = %135
  br label %151

144:                                              ; preds = %135
  %145 = load ptr, ptr %12, align 8, !tbaa !27
  %146 = getelementptr inbounds nuw %struct.X509_algor_st, ptr %145, i32 0, i32 1
  %147 = load ptr, ptr %146, align 8, !tbaa !36
  %148 = getelementptr inbounds nuw %struct.asn1_type_st, ptr %147, i32 0, i32 0
  store i32 16, ptr %148, align 8, !tbaa !38
  %149 = load ptr, ptr %13, align 8, !tbaa !19
  call void @PBKDF2PARAM_free(ptr noundef %149)
  %150 = load ptr, ptr %12, align 8, !tbaa !27
  store ptr %150, ptr %6, align 8
  store i32 1, ptr %15, align 4
  br label %154

151:                                              ; preds = %143, %134, %125, %113, %97, %88, %79, %65, %43, %22, %18
  call void @ERR_put_error(i32 noundef 19, i32 noundef 0, i32 noundef 65, ptr noundef @.str.2, i32 noundef 301)
  %152 = load ptr, ptr %13, align 8, !tbaa !19
  call void @PBKDF2PARAM_free(ptr noundef %152)
  %153 = load ptr, ptr %12, align 8, !tbaa !27
  call void @X509_ALGOR_free(ptr noundef %153)
  store ptr null, ptr %6, align 8
  store i32 1, ptr %15, align 4
  br label %154

154:                                              ; preds = %151, %144
  call void @llvm.lifetime.end.p0(i64 8, ptr %14) #5
  call void @llvm.lifetime.end.p0(i64 8, ptr %13) #5
  call void @llvm.lifetime.end.p0(i64 8, ptr %12) #5
  %155 = load ptr, ptr %6, align 8
  ret ptr %155
}