; Function Attrs: nounwind uwtable
define hidden ptr @PKCS5_pbkdf2_set(i32 noundef %0, ptr noundef readonly captures(address_is_null) %1, i32 noundef %2, i32 noundef %3, i32 noundef %4) local_unnamed_addr #0 {
  %6 = tail call ptr @ASN1_item_new(ptr noundef nonnull @PBKDF2PARAM_it) #5
  %.not = icmp eq ptr %6, null
  br i1 %.not, label %54, label %7

7:                                                ; preds = %5
  %8 = tail call ptr @ASN1_STRING_type_new(i32 noundef 4) #5
  %.not49 = icmp eq ptr %8, null
  br i1 %.not49, label %54, label %9

9:                                                ; preds = %7
  %10 = load ptr, ptr %6, align 8, !tbaa !22
  %11 = getelementptr inbounds nuw i8, ptr %10, i64 8
  store ptr %8, ptr %11, align 8, !tbaa !25
  %12 = load ptr, ptr %6, align 8, !tbaa !22
  store i32 4, ptr %12, align 8, !tbaa !20
  %.not50 = icmp eq i32 %2, 0
  %spec.store.select = select i1 %.not50, i32 8, i32 %2
  %13 = sext i32 %spec.store.select to i64
  %14 = tail call noalias ptr @malloc(i64 noundef %13) #6
  %15 = getelementptr inbounds nuw i8, ptr %8, i64 8
  store ptr %14, ptr %15, align 8, !tbaa !26
  %.not51 = icmp eq ptr %14, null
  br i1 %.not51, label %54, label %16

16:                                               ; preds = %9
  store i32 %spec.store.select, ptr %8, align 8, !tbaa !30
  %.not52 = icmp eq ptr %1, null
  br i1 %.not52, label %18, label %17

17:                                               ; preds = %16
  tail call void @llvm.memcpy.p0.p0.i64(ptr noundef nonnull align 1 dereferenceable(1) %14, ptr noundef nonnull align 1 dereferenceable(1) %1, i64 %13, i1 false)
  br label %20

18:                                               ; preds = %16
  %19 = tail call i32 @RAND_bytes(ptr noundef nonnull %14, i64 noundef %13) #5
  %.not53 = icmp eq i32 %19, 0
  br i1 %.not53, label %54, label %20

20:                                               ; preds = %18, %17
  %21 = icmp slt i32 %0, 1
  %spec.store.select1 = select i1 %21, i32 2048, i32 %0
  %22 = getelementptr inbounds nuw i8, ptr %6, i64 8
  %23 = load ptr, ptr %22, align 8, !tbaa !31
  %24 = zext nneg i32 %spec.store.select1 to i64
  %25 = tail call i32 @ASN1_INTEGER_set(ptr noundef %23, i64 noundef %24) #5
  %.not54 = icmp eq i32 %25, 0
  br i1 %.not54, label %54, label %26

26:                                               ; preds = %20
  %27 = icmp sgt i32 %4, 0
  br i1 %27, label %28, label %34

28:                                               ; preds = %26
  %29 = tail call ptr @ASN1_STRING_type_new(i32 noundef 2) #5
  %30 = getelementptr inbounds nuw i8, ptr %6, i64 16
  store ptr %29, ptr %30, align 8, !tbaa !32
  %.not55 = icmp eq ptr %29, null
  br i1 %.not55, label %54, label %31

31:                                               ; preds = %28
  %32 = zext nneg i32 %4 to i64
  %33 = tail call i32 @ASN1_INTEGER_set(ptr noundef nonnull %29, i64 noundef %32) #5
  %.not56 = icmp eq i32 %33, 0
  br i1 %.not56, label %54, label %34

34:                                               ; preds = %31, %26
  %35 = icmp sgt i32 %3, 0
  %36 = icmp ne i32 %3, 163
  %or.cond = and i1 %35, %36
  br i1 %or.cond, label %37, label %43

37:                                               ; preds = %34
  %38 = tail call ptr @X509_ALGOR_new() #5
  %39 = getelementptr inbounds nuw i8, ptr %6, i64 24
  store ptr %38, ptr %39, align 8, !tbaa !33
  %.not57 = icmp eq ptr %38, null
  br i1 %.not57, label %54, label %40

40:                                               ; preds = %37
  %41 = tail call ptr @OBJ_nid2obj(i32 noundef %3) #5
  %42 = tail call i32 @X509_ALGOR_set0(ptr noundef nonnull %38, ptr noundef %41, i32 noundef 5, ptr noundef null) #5
  br label %43

43:                                               ; preds = %40, %34
  %44 = tail call ptr @X509_ALGOR_new() #5
  %.not58 = icmp eq ptr %44, null
  br i1 %.not58, label %54, label %45

45:                                               ; preds = %43
  %46 = tail call ptr @OBJ_nid2obj(i32 noundef 69) #5
  store ptr %46, ptr %44, align 8, !tbaa !14
  %47 = tail call ptr @ASN1_TYPE_new() #5
  %48 = getelementptr inbounds nuw i8, ptr %44, i64 8
  store ptr %47, ptr %48, align 8, !tbaa !18
  %.not59 = icmp eq ptr %47, null
  br i1 %.not59, label %54, label %49

49:                                               ; preds = %45
  %50 = getelementptr inbounds nuw i8, ptr %47, i64 8
  %51 = tail call ptr @ASN1_item_pack(ptr noundef nonnull %6, ptr noundef nonnull @PBKDF2PARAM_it, ptr noundef nonnull %50) #5
  %.not60 = icmp eq ptr %51, null
  br i1 %.not60, label %54, label %52

52:                                               ; preds = %49
  %53 = load ptr, ptr %48, align 8, !tbaa !18
  store i32 16, ptr %53, align 8, !tbaa !20
  tail call void @ASN1_item_free(ptr noundef nonnull %6, ptr noundef nonnull @PBKDF2PARAM_it) #5
  br label %55

54:                                               ; preds = %49, %45, %43, %37, %31, %28, %20, %18, %9, %7, %5
  %.0 = phi ptr [ %44, %49 ], [ %44, %45 ], [ null, %43 ], [ null, %37 ], [ null, %31 ], [ null, %28 ], [ null, %20 ], [ null, %18 ], [ null, %9 ], [ null, %7 ], [ null, %5 ]
  tail call void @ERR_put_error(i32 noundef 19, i32 noundef 0, i32 noundef 65, ptr noundef nonnull @.str.2, i32 noundef 301) #5
  tail call void @ASN1_item_free(ptr noundef %6, ptr noundef nonnull @PBKDF2PARAM_it) #5
  tail call void @X509_ALGOR_free(ptr noundef %.0) #5
  br label %55

55:                                               ; preds = %54, %52
  %.039 = phi ptr [ %44, %52 ], [ null, %54 ]
  ret ptr %.039
}